target datalayout = "e-m:e-p270:32:32-p271:32:32-p272:64:64-i64:64-i128:128-f80:128-n8:16:32:64-S128"
target triple = "x86_64-pc-linux-gnu"

@.str.455 = private unnamed_addr constant [14 x i8] c" Success (%d)\00", align 1
@.str.456 = private unnamed_addr constant [13 x i8] c" Reject (%d)\00", align 1
@.str.457 = private unnamed_addr constant [14 x i8] c" Failure (%d)\00", align 1

; Function Attrs: null_pointer_is_valid sspstrong uwtable
define internal void @mu_association_status(ptr noundef %0, i8 noundef zeroext %1) #0 {
  %3 = alloca ptr, align 8
  %4 = alloca i8, align 1
  store ptr %0, ptr %3, align 8
  store i8 %1, ptr %4, align 1
  %5 = load i8, ptr %4, align 1
  %6 = zext i8 %5 to i32
  %7 = icmp eq i32 %6, 1
  br i1 %7, label %8, label %15

8:                                                ; preds = %2
  %9 = load ptr, ptr %3, align 8
  %10 = load ptr, ptr %3, align 8
  %11 = call i64 @llvm.objectsize.i64.p0(ptr %10, i1 false, i1 true, i1 true)
  %12 = load i8, ptr %4, align 1
  %13 = zext i8 %12 to i32
  %14 = call i32 (ptr, i64, i32, i64, ptr, ...) @__snprintf_chk(ptr noundef %9, i64 noundef 240, i32 noundef 2, i64 noundef %11, ptr noundef @.str.455, i32 noundef %13)
  br label %34

15:                                               ; preds = %2
  %16 = load i8, ptr %4, align 1
  %17 = zext i8 %16 to i32
  %18 = icmp eq i32 %17, 2
  br i1 %18, label %19, label %26

19:                                               ; preds = %15
  %20 = load ptr, ptr %3, align 8
  %21 = load ptr, ptr %3, align 8
  %22 = call i64 @llvm.objectsize.i64.p0(ptr %21, i1 false, i1 true, i1 true)
  %23 = load i8, ptr %4, align 1
  %24 = zext i8 %23 to i32
  %25 = call i32 (ptr, i64, i32, i64, ptr, ...) @__snprintf_chk(ptr noundef %20, i64 noundef 240, i32 noundef 2, i64 noundef %22, ptr noundef @.str.456, i32 noundef %24)
  br label %33

26:                                               ; preds = %15
  %27 = load ptr, ptr %3, align 8
  %28 = load ptr, ptr %3, align 8
  %29 = call i64 @llvm.objectsize.i64.p0(ptr %28, i1 false, i1 true, i1 true)
  %30 = load i8, ptr %4, align 1
  %31 = zext i8 %30 to i32
  %32 = call i32 (ptr, i64, i32, i64, ptr, ...) @__snprintf_chk(ptr noundef %27, i64 noundef 240, i32 noundef 2, i64 noundef %29, ptr noundef @.str.457, i32 noundef %31)
  br label %33

33:                                               ; preds = %26, %19
  br label %34

34:                                               ; preds = %33, %8
  ret void
}