; Function Attrs: nofree null_pointer_is_valid sspstrong uwtable
define internal void @mu_association_status(ptr noundef %0, i8 noundef zeroext %1) #1 {
  switch i8 %1, label %7 [
    i8 1, label %3
    i8 2, label %5
  ]

3:                                                ; preds = %2
  %4 = tail call i32 (ptr, i64, i32, i64, ptr, ...) @__snprintf_chk(ptr noundef %0, i64 noundef 240, i32 noundef 2, i64 noundef -1, ptr noundef nonnull @.str.455, i32 noundef 1)
  br label %10

5:                                                ; preds = %2
  %6 = tail call i32 (ptr, i64, i32, i64, ptr, ...) @__snprintf_chk(ptr noundef %0, i64 noundef 240, i32 noundef 2, i64 noundef -1, ptr noundef nonnull @.str.456, i32 noundef 2)
  br label %10

7:                                                ; preds = %2
  %8 = zext i8 %1 to i32
  %9 = tail call i32 (ptr, i64, i32, i64, ptr, ...) @__snprintf_chk(ptr noundef %0, i64 noundef 240, i32 noundef 2, i64 noundef -1, ptr noundef nonnull @.str.457, i32 noundef %8)
  br label %10

10:                                               ; preds = %5, %7, %3
  ret void
}